; ModuleID = '50/1665.c'
source_filename = "50/1665.c"
target datalayout = "e-m:e-p270:32:32-p271:32:32-p272:64:64-i64:64-f80:128-n8:16:32:64-S128"
target triple = "x86_64-pc-linux-gnu"

@.str = private unnamed_addr constant [3 x i8] c"%d\00", align 1
@.str.1 = private unnamed_addr constant [4 x i8] c"%d\0A\00", align 1

; Function Attrs: noinline nounwind uwtable
define dso_local i32 @main(i32 %0, i8** %1) #0 {
  %3 = alloca i32, align 4
  %4 = alloca i32, align 4
  %5 = alloca i8**, align 8
  %6 = alloca i32, align 4
  %7 = alloca i32, align 4
  %8 = alloca i32, align 4
  %9 = alloca i32, align 4
  store i32 0, i32* %3, align 4
  store i32 %0, i32* %4, align 4
  store i8** %1, i8*** %5, align 8
  %10 = call i32 (i8*, ...) @__isoc99_scanf(i8* getelementptr inbounds ([3 x i8], [3 x i8]* @.str, i64 0, i64 0), i32* %6)
  store i32 0, i32* %8, align 4
  store i32 1, i32* %7, align 4
  br label %11

11:                                               ; preds = %73, %2
  %12 = load i32, i32* %7, align 4
  %13 = icmp sle i32 %12, 12
  br i1 %13, label %14, label %76

14:                                               ; preds = %11
  %15 = load i32, i32* %8, align 4
  %16 = add nsw i32 %15, 12
  %17 = load i32, i32* %6, align 4
  %18 = add nsw i32 %16, %17
  store i32 %18, i32* %9, align 4
  %19 = load i32, i32* %9, align 4
  %20 = srem i32 %19, 7
  %21 = icmp eq i32 %20, 5
  br i1 %21, label %22, label %25

22:                                               ; preds = %14
  %23 = load i32, i32* %7, align 4
  %24 = call i32 (i8*, ...) @printf(i8* getelementptr inbounds ([4 x i8], [4 x i8]* @.str.1, i64 0, i64 0), i32 %23)
  br label %25

25:                                               ; preds = %22, %14
  %26 = load i32, i32* %7, align 4
  %27 = icmp eq i32 %26, 1
  br i1 %27, label %46, label %28

28:                                               ; preds = %25
  %29 = load i32, i32* %7, align 4
  %30 = icmp eq i32 %29, 3
  br i1 %30, label %46, label %31

31:                                               ; preds = %28
  %32 = load i32, i32* %7, align 4
  %33 = icmp eq i32 %32, 5
  br i1 %33, label %46, label %34

34:                                               ; preds = %31
  %35 = load i32, i32* %7, align 4
  %36 = icmp eq i32 %35, 7
  br i1 %36, label %46, label %37

37:                                               ; preds = %34
  %38 = load i32, i32* %7, align 4
  %39 = icmp eq i32 %38, 8
  br i1 %39, label %46, label %40

40:                                               ; preds = %37
  %41 = load i32, i32* %7, align 4
  %42 = icmp eq i32 %41, 10
  br i1 %42, label %46, label %43

43:                                               ; preds = %40
  %44 = load i32, i32* %7, align 4
  %45 = icmp eq i32 %44, 12
  br i1 %45, label %46, label %49

46:                                               ; preds = %43, %40, %37, %34, %31, %28, %25
  %47 = load i32, i32* %8, align 4
  %48 = add nsw i32 %47, 31
  store i32 %48, i32* %8, align 4
  br label %72

49:                                               ; preds = %43
  %50 = load i32, i32* %7, align 4
  %51 = icmp eq i32 %50, 2
  br i1 %51, label %52, label %55

52:                                               ; preds = %49
  %53 = load i32, i32* %8, align 4
  %54 = add nsw i32 %53, 28
  store i32 %54, i32* %8, align 4
  br label %71

55:                                               ; preds = %49
  %56 = load i32, i32* %7, align 4
  %57 = icmp eq i32 %56, 4
  br i1 %57, label %67, label %58

58:                                               ; preds = %55
  %59 = load i32, i32* %7, align 4
  %60 = icmp eq i32 %59, 6
  br i1 %60, label %67, label %61

61:                                               ; preds = %58
  %62 = load i32, i32* %7, align 4
  %63 = icmp eq i32 %62, 9
  br i1 %63, label %67, label %64

64:                                               ; preds = %61
  %65 = load i32, i32* %7, align 4
  %66 = icmp eq i32 %65, 11
  br i1 %66, label %67, label %70

67:                                               ; preds = %64, %61, %58, %55
  %68 = load i32, i32* %8, align 4
  %69 = add nsw i32 %68, 30
  store i32 %69, i32* %8, align 4
  br label %70

70:                                               ; preds = %67, %64
  br label %71

71:                                               ; preds = %70, %52
  br label %72

72:                                               ; preds = %71, %46
  br label %73

73:                                               ; preds = %72
  %74 = load i32, i32* %7, align 4
  %75 = add nsw i32 %74, 1
  store i32 %75, i32* %7, align 4
  br label %11

76:                                               ; preds = %11
  ret i32 0
}

declare dso_local i32 @__isoc99_scanf(i8*, ...) #1

declare dso_local i32 @printf(i8*, ...) #1


!llvm.module.flags = !{!0}
!llvm.ident = !{!1}

!0 = !{i32 1, !"wchar_size", i32 4}
!1 = !{!"clang version 10.0.0-4ubuntu1 "}
