; ModuleID = 'source-C-CXX/49/1665.c'
source_filename = "source-C-CXX/49/1665.c"
target datalayout = "e-m:e-p270:32:32-p271:32:32-p272:64:64-i64:64-f80:128-n8:16:32:64-S128"
target triple = "x86_64-pc-linux-gnu"

@.str = private unnamed_addr constant [3 x i8] c"%d\00", align 1
@.str.1 = private unnamed_addr constant [4 x i8] c"%d\0A\00", align 1

; Function Attrs: nofree nounwind sspstrong uwtable
define dso_local i32 @main(i32 %0, i8** nocapture readnone %1) local_unnamed_addr #0 {
  %3 = alloca i32, align 4
  %4 = bitcast i32* %3 to i8*
  call void @llvm.lifetime.start.p0i8(i64 4, i8* nonnull %4) #3
  %5 = call i32 (i8*, ...) @__isoc99_scanf(i8* getelementptr inbounds ([3 x i8], [3 x i8]* @.str, i64 0, i64 0), i32* nonnull %3)
  %6 = load i32, i32* %3, align 4, !tbaa !5
  %7 = add nsw i32 %6, 12
  %8 = srem i32 %7, 7
  %9 = icmp eq i32 %8, 5
  br i1 %9, label %10, label %12

10:                                               ; preds = %2
  %11 = call i32 (i8*, ...) @printf(i8* nonnull dereferenceable(1) getelementptr inbounds ([4 x i8], [4 x i8]* @.str.1, i64 0, i64 0), i32 1)
  br label %12

12:                                               ; preds = %2, %10
  %13 = load i32, i32* %3, align 4, !tbaa !5
  %14 = add nsw i32 %13, 43
  %15 = srem i32 %14, 7
  %16 = icmp eq i32 %15, 5
  br i1 %16, label %17, label %19

17:                                               ; preds = %12
  %18 = call i32 (i8*, ...) @printf(i8* nonnull dereferenceable(1) getelementptr inbounds ([4 x i8], [4 x i8]* @.str.1, i64 0, i64 0), i32 2)
  br label %19

19:                                               ; preds = %12, %17
  %20 = load i32, i32* %3, align 4, !tbaa !5
  %21 = add nsw i32 %20, 71
  %22 = srem i32 %21, 7
  %23 = icmp eq i32 %22, 5
  br i1 %23, label %24, label %26

24:                                               ; preds = %19
  %25 = call i32 (i8*, ...) @printf(i8* nonnull dereferenceable(1) getelementptr inbounds ([4 x i8], [4 x i8]* @.str.1, i64 0, i64 0), i32 3)
  br label %26

26:                                               ; preds = %24, %19
  %27 = add nuw nsw i32 90, 12
  %28 = load i32, i32* %3, align 4, !tbaa !5
  %29 = add nsw i32 %27, %28
  %30 = srem i32 %29, 7
  %31 = icmp eq i32 %30, 5
  br i1 %31, label %32, label %34

32:                                               ; preds = %26
  %33 = call i32 (i8*, ...) @printf(i8* nonnull dereferenceable(1) getelementptr inbounds ([4 x i8], [4 x i8]* @.str.1, i64 0, i64 0), i32 4)
  br label %34

34:                                               ; preds = %26, %32
  %35 = add nuw nsw i32 90, 30
  %36 = add nsw i32 %35, 12
  %37 = load i32, i32* %3, align 4, !tbaa !5
  %38 = add nsw i32 %36, %37
  %39 = srem i32 %38, 7
  %40 = icmp eq i32 %39, 5
  br i1 %40, label %41, label %43

41:                                               ; preds = %34
  %42 = call i32 (i8*, ...) @printf(i8* nonnull dereferenceable(1) getelementptr inbounds ([4 x i8], [4 x i8]* @.str.1, i64 0, i64 0), i32 5)
  br label %43

43:                                               ; preds = %34, %41
  %44 = add nsw i32 %35, 31
  %45 = add nsw i32 %44, 12
  %46 = load i32, i32* %3, align 4, !tbaa !5
  %47 = add nsw i32 %45, %46
  %48 = srem i32 %47, 7
  %49 = icmp eq i32 %48, 5
  br i1 %49, label %50, label %52

50:                                               ; preds = %43
  %51 = call i32 (i8*, ...) @printf(i8* nonnull dereferenceable(1) getelementptr inbounds ([4 x i8], [4 x i8]* @.str.1, i64 0, i64 0), i32 6)
  br label %52

52:                                               ; preds = %43, %50
  %53 = add nsw i32 %44, 30
  %54 = add nsw i32 %53, 12
  %55 = load i32, i32* %3, align 4, !tbaa !5
  %56 = add nsw i32 %54, %55
  %57 = srem i32 %56, 7
  %58 = icmp eq i32 %57, 5
  br i1 %58, label %59, label %61

59:                                               ; preds = %52
  %60 = call i32 (i8*, ...) @printf(i8* nonnull dereferenceable(1) getelementptr inbounds ([4 x i8], [4 x i8]* @.str.1, i64 0, i64 0), i32 7)
  br label %61

61:                                               ; preds = %52, %59
  %62 = add nsw i32 %53, 31
  %63 = add nsw i32 %62, 12
  %64 = load i32, i32* %3, align 4, !tbaa !5
  %65 = add nsw i32 %63, %64
  %66 = srem i32 %65, 7
  %67 = icmp eq i32 %66, 5
  br i1 %67, label %68, label %70

68:                                               ; preds = %61
  %69 = call i32 (i8*, ...) @printf(i8* nonnull dereferenceable(1) getelementptr inbounds ([4 x i8], [4 x i8]* @.str.1, i64 0, i64 0), i32 8)
  br label %70

70:                                               ; preds = %61, %68
  %71 = add nsw i32 %62, 31
  %72 = add nsw i32 %71, 12
  %73 = load i32, i32* %3, align 4, !tbaa !5
  %74 = add nsw i32 %72, %73
  %75 = srem i32 %74, 7
  %76 = icmp eq i32 %75, 5
  br i1 %76, label %77, label %79

77:                                               ; preds = %70
  %78 = call i32 (i8*, ...) @printf(i8* nonnull dereferenceable(1) getelementptr inbounds ([4 x i8], [4 x i8]* @.str.1, i64 0, i64 0), i32 9)
  br label %79

79:                                               ; preds = %70, %77
  %80 = add nsw i32 %71, 30
  %81 = add nsw i32 %80, 12
  %82 = load i32, i32* %3, align 4, !tbaa !5
  %83 = add nsw i32 %81, %82
  %84 = srem i32 %83, 7
  %85 = icmp eq i32 %84, 5
  br i1 %85, label %86, label %88

86:                                               ; preds = %79
  %87 = call i32 (i8*, ...) @printf(i8* nonnull dereferenceable(1) getelementptr inbounds ([4 x i8], [4 x i8]* @.str.1, i64 0, i64 0), i32 10)
  br label %88

88:                                               ; preds = %79, %86
  %89 = add nsw i32 %80, 31
  %90 = add nsw i32 %89, 12
  %91 = load i32, i32* %3, align 4, !tbaa !5
  %92 = add nsw i32 %90, %91
  %93 = srem i32 %92, 7
  %94 = icmp eq i32 %93, 5
  br i1 %94, label %95, label %97

95:                                               ; preds = %88
  %96 = call i32 (i8*, ...) @printf(i8* nonnull dereferenceable(1) getelementptr inbounds ([4 x i8], [4 x i8]* @.str.1, i64 0, i64 0), i32 11)
  br label %97

97:                                               ; preds = %88, %95
  %98 = add i32 %89, 42
  %99 = load i32, i32* %3, align 4, !tbaa !5
  %100 = add nsw i32 %98, %99
  %101 = srem i32 %100, 7
  %102 = icmp eq i32 %101, 5
  br i1 %102, label %103, label %105

103:                                              ; preds = %97
  %104 = call i32 (i8*, ...) @printf(i8* nonnull dereferenceable(1) getelementptr inbounds ([4 x i8], [4 x i8]* @.str.1, i64 0, i64 0), i32 12)
  br label %105

105:                                              ; preds = %103, %97
  call void @llvm.lifetime.end.p0i8(i64 4, i8* nonnull %4) #3
  ret i32 0
}

; Function Attrs: argmemonly mustprogress nofree nosync nounwind willreturn
declare void @llvm.lifetime.start.p0i8(i64 immarg, i8* nocapture) #1

; Function Attrs: nofree nounwind
declare noundef i32 @__isoc99_scanf(i8* nocapture noundef readonly, ...) local_unnamed_addr #2

; Function Attrs: nofree nounwind
declare noundef i32 @printf(i8* nocapture noundef readonly, ...) local_unnamed_addr #2

; Function Attrs: argmemonly mustprogress nofree nosync nounwind willreturn
declare void @llvm.lifetime.end.p0i8(i64 immarg, i8* nocapture) #1


!llvm.module.flags = !{!0, !1, !2, !3}
!llvm.ident = !{!4}

!0 = !{i32 1, !"wchar_size", i32 4}
!1 = !{i32 7, !"PIC Level", i32 2}
!2 = !{i32 7, !"PIE Level", i32 2}
!3 = !{i32 7, !"uwtable", i32 1}
!4 = !{!"clang version 13.0.0"}
!5 = !{!6, !6, i64 0}
!6 = !{!"int", !7, i64 0}
!7 = !{!"omnipotent char", !8, i64 0}
!8 = !{!"Simple C/C++ TBAA"}
